; Function Attrs: mustprogress uwtable
define void @_ZN5Yosys9DriverMap8add_portEPNS_5RTLIL4CellERKNS1_8IdStringERKNS1_7SigSpecE(ptr noundef nonnull align 8 dereferenceable(1088) %0, ptr noundef %1, ptr noundef nonnull readonly align 4 captures(none) dereferenceable(4) %2, ptr noundef nonnull align 8 dereferenceable(56) %3) local_unnamed_addr #5 align 2 personality ptr @__gxx_personality_v0 {
  %5 = alloca %"struct.Yosys::DriveChunkPort", align 8
  %6 = alloca %"struct.Yosys::RTLIL::IdString", align 4
  tail call void @_ZNK5Yosys5RTLIL7SigSpec4packEv(ptr noundef nonnull align 8 dereferenceable(56) %3)
  %7 = getelementptr inbounds nuw i8, ptr %3, i64 8
  %8 = load ptr, ptr %7, align 8, !tbaa !342
  %9 = getelementptr inbounds nuw i8, ptr %3, i64 16
  %10 = load ptr, ptr %9, align 8, !tbaa !342
  %.not18 = icmp eq ptr %8, %10
  br i1 %.not18, label %._crit_edge, label %.lr.ph

.lr.ph:                                           ; preds = %4
  %11 = getelementptr inbounds nuw i8, ptr %5, i64 8
  %12 = getelementptr inbounds nuw i8, ptr %5, i64 12
  %13 = getelementptr inbounds nuw i8, ptr %5, i64 16
  br label %14

._crit_edge:                                      ; preds = %_ZN5Yosys5RTLIL8IdStringD2Ev.exit, %4
  ret void

14:                                               ; preds = %.lr.ph, %_ZN5Yosys5RTLIL8IdStringD2Ev.exit
  %.01320 = phi i32 [ 0, %.lr.ph ], [ %61, %_ZN5Yosys5RTLIL8IdStringD2Ev.exit ]
  %.sroa.015.019 = phi ptr [ %8, %.lr.ph ], [ %62, %_ZN5Yosys5RTLIL8IdStringD2Ev.exit ]
  call void @llvm.lifetime.start.p0(i64 24, ptr nonnull %5) #28
  %15 = load i32, ptr %2, align 4, !tbaa !39
  %.not.i.i = icmp eq i32 %15, 0
  br i1 %.not.i.i, label %_ZN5Yosys5RTLIL8IdStringC2ERKS1_.exit.thread, label %18

_ZN5Yosys5RTLIL8IdStringC2ERKS1_.exit.thread:     ; preds = %14
  store i32 0, ptr %6, align 4, !tbaa !39
  %16 = getelementptr inbounds nuw i8, ptr %.sroa.015.019, i64 32
  %17 = load i32, ptr %16, align 8, !tbaa !343
  br label %27

18:                                               ; preds = %14
  %19 = sext i32 %15 to i64
  %20 = load ptr, ptr @_ZN5Yosys5RTLIL8IdString24global_refcount_storage_E, align 8, !tbaa !24
  %21 = getelementptr inbounds nuw i32, ptr %20, i64 %19
  %22 = load i32, ptr %21, align 4, !tbaa !17
  %23 = add nsw i32 %22, 1
  store i32 %23, ptr %21, align 4, !tbaa !17
  store i32 %15, ptr %6, align 4, !tbaa !39
  %24 = getelementptr inbounds nuw i8, ptr %.sroa.015.019, i64 32
  %25 = load i32, ptr %24, align 8, !tbaa !343
  %26 = add nsw i32 %22, 2
  store i32 %26, ptr %21, align 4, !tbaa !17
  br label %27

27:                                               ; preds = %18, %_ZN5Yosys5RTLIL8IdStringC2ERKS1_.exit.thread
  %28 = phi i32 [ %17, %_ZN5Yosys5RTLIL8IdStringC2ERKS1_.exit.thread ], [ %25, %18 ]
  %29 = phi ptr [ %16, %_ZN5Yosys5RTLIL8IdStringC2ERKS1_.exit.thread ], [ %24, %18 ]
  store ptr %1, ptr %5, align 8, !tbaa !61
  store i32 %15, ptr %11, align 8, !tbaa !39
  store i32 %.01320, ptr %12, align 4, !tbaa !66
  store i32 %28, ptr %13, align 8, !tbaa !78
  invoke void @_ZN5Yosys9DriverMap3addINS_5RTLIL8SigChunkENS_14DriveChunkPortEEENSt9enable_ifIXaacl11is_sig_typeIT_EEcl11is_sig_typeIT0_EEEvE4typeERKS6_RKS7_(ptr noundef nonnull align 8 dereferenceable(1088) %0, ptr noundef nonnull align 8 dereferenceable(40) %.sroa.015.019, ptr noundef nonnull align 8 dereferenceable(20) %5)
          to label %30 unwind label %63

30:                                               ; preds = %27
  %31 = load i32, ptr %11, align 8, !tbaa !39
  %32 = load i8, ptr @_ZN5Yosys5RTLIL8IdString17destruct_guard_okE, align 1, !tbaa !67, !range !69, !noundef !70
  %33 = trunc nuw i8 %32 to i1
  %34 = icmp ne i32 %31, 0
  %or.cond.i.i.i = and i1 %34, %33
  br i1 %or.cond.i.i.i, label %35, label %_ZN5Yosys14DriveChunkPortD2Ev.exit

35:                                               ; preds = %30
  %36 = sext i32 %31 to i64
  %37 = load ptr, ptr @_ZN5Yosys5RTLIL8IdString24global_refcount_storage_E, align 8, !tbaa !24
  %38 = getelementptr inbounds nuw i32, ptr %37, i64 %36
  %39 = load i32, ptr %38, align 4, !tbaa !17
  %40 = add nsw i32 %39, -1
  store i32 %40, ptr %38, align 4, !tbaa !17
  %41 = icmp sgt i32 %39, 1
  br i1 %41, label %_ZN5Yosys14DriveChunkPortD2Ev.exit, label %42

42:                                               ; preds = %35
  invoke void @_ZN5Yosys5RTLIL8IdString14free_referenceEi(i32 noundef %31)
          to label %._ZN5Yosys14DriveChunkPortD2Ev.exit_crit_edge unwind label %43

._ZN5Yosys14DriveChunkPortD2Ev.exit_crit_edge:    ; preds = %42
  %.pre = load i8, ptr @_ZN5Yosys5RTLIL8IdString17destruct_guard_okE, align 1, !tbaa !67, !range !69
  br label %_ZN5Yosys14DriveChunkPortD2Ev.exit

43:                                               ; preds = %42
  %44 = landingpad { ptr, i32 }
          catch ptr null
  %45 = extractvalue { ptr, i32 } %44, 0
  call void @__clang_call_terminate(ptr %45) #30
  unreachable

_ZN5Yosys14DriveChunkPortD2Ev.exit:               ; preds = %._ZN5Yosys14DriveChunkPortD2Ev.exit_crit_edge, %30, %35
  %46 = phi i8 [ %.pre, %._ZN5Yosys14DriveChunkPortD2Ev.exit_crit_edge ], [ %32, %30 ], [ 1, %35 ]
  %47 = trunc nuw i8 %46 to i1
  %48 = icmp ne i32 %15, 0
  %or.cond.i.i = and i1 %48, %47
  br i1 %or.cond.i.i, label %49, label %_ZN5Yosys5RTLIL8IdStringD2Ev.exit

49:                                               ; preds = %_ZN5Yosys14DriveChunkPortD2Ev.exit
  %50 = sext i32 %15 to i64
  %51 = load ptr, ptr @_ZN5Yosys5RTLIL8IdString24global_refcount_storage_E, align 8, !tbaa !24
  %52 = getelementptr inbounds nuw i32, ptr %51, i64 %50
  %53 = load i32, ptr %52, align 4, !tbaa !17
  %54 = add nsw i32 %53, -1
  store i32 %54, ptr %52, align 4, !tbaa !17
  %55 = icmp sgt i32 %53, 1
  br i1 %55, label %_ZN5Yosys5RTLIL8IdStringD2Ev.exit, label %56

56:                                               ; preds = %49
  invoke void @_ZN5Yosys5RTLIL8IdString14free_referenceEi(i32 noundef %15)
          to label %_ZN5Yosys5RTLIL8IdStringD2Ev.exit unwind label %57

57:                                               ; preds = %56
  %58 = landingpad { ptr, i32 }
          catch ptr null
  %59 = extractvalue { ptr, i32 } %58, 0
  call void @__clang_call_terminate(ptr %59) #30
  unreachable

_ZN5Yosys5RTLIL8IdStringD2Ev.exit:                ; preds = %_ZN5Yosys14DriveChunkPortD2Ev.exit, %49, %56
  call void @llvm.lifetime.end.p0(i64 24, ptr nonnull %5) #28
  %60 = load i32, ptr %29, align 8, !tbaa !343
  %61 = add nsw i32 %60, %.01320
  %62 = getelementptr inbounds nuw i8, ptr %.sroa.015.019, i64 40
  %.not = icmp eq ptr %62, %10
  br i1 %.not, label %._crit_edge, label %14

63:                                               ; preds = %27
  %64 = landingpad { ptr, i32 }
          cleanup
  call void @_ZN5Yosys14DriveChunkPortD2Ev(ptr noundef nonnull align 8 dereferenceable(20) %5) #28
  call void @_ZN5Yosys5RTLIL8IdStringD2Ev(ptr noundef nonnull align 4 dereferenceable(4) %6) #28
  call void @llvm.lifetime.end.p0(i64 24, ptr nonnull %5) #28
  resume { ptr, i32 } %64
}